target datalayout = "e-m:e-p270:32:32-p271:32:32-p272:64:64-i64:64-i128:128-f80:128-n8:16:32:64-S128"
target triple = "x86_64-pc-linux-gnu"

; Function Attrs: nounwind uwtable
define internal i32 @LZ4F_readLE32(ptr noundef %0) #0 {
  %2 = alloca ptr, align 8
  %3 = alloca ptr, align 8
  %4 = alloca i32, align 4
  store ptr %0, ptr %2, align 8, !tbaa !12
  call void @llvm.lifetime.start.p0(i64 8, ptr %3) #8
  %5 = load ptr, ptr %2, align 8, !tbaa !12
  store ptr %5, ptr %3, align 8, !tbaa !7
  call void @llvm.lifetime.start.p0(i64 4, ptr %4) #8
  %6 = load ptr, ptr %3, align 8, !tbaa !7
  %7 = getelementptr inbounds i8, ptr %6, i64 0
  %8 = load i8, ptr %7, align 1, !tbaa !16
  %9 = zext i8 %8 to i32
  store i32 %9, ptr %4, align 4, !tbaa !10
  %10 = load ptr, ptr %3, align 8, !tbaa !7
  %11 = getelementptr inbounds i8, ptr %10, i64 1
  %12 = load i8, ptr %11, align 1, !tbaa !16
  %13 = zext i8 %12 to i32
  %14 = shl i32 %13, 8
  %15 = load i32, ptr %4, align 4, !tbaa !10
  %16 = or i32 %15, %14
  store i32 %16, ptr %4, align 4, !tbaa !10
  %17 = load ptr, ptr %3, align 8, !tbaa !7
  %18 = getelementptr inbounds i8, ptr %17, i64 2
  %19 = load i8, ptr %18, align 1, !tbaa !16
  %20 = zext i8 %19 to i32
  %21 = shl i32 %20, 16
  %22 = load i32, ptr %4, align 4, !tbaa !10
  %23 = or i32 %22, %21
  store i32 %23, ptr %4, align 4, !tbaa !10
  %24 = load ptr, ptr %3, align 8, !tbaa !7
  %25 = getelementptr inbounds i8, ptr %24, i64 3
  %26 = load i8, ptr %25, align 1, !tbaa !16
  %27 = zext i8 %26 to i32
  %28 = shl i32 %27, 24
  %29 = load i32, ptr %4, align 4, !tbaa !10
  %30 = or i32 %29, %28
  store i32 %30, ptr %4, align 4, !tbaa !10
  %31 = load i32, ptr %4, align 4, !tbaa !10
  call void @llvm.lifetime.end.p0(i64 4, ptr %4) #8
  call void @llvm.lifetime.end.p0(i64 8, ptr %3) #8
  ret i32 %31
}

; Function Attrs: nounwind uwtable
define internal i64 @LZ4F_returnErrorCode(i32 noundef %0) #0 {
  %2 = alloca i32, align 4
  store i32 %0, ptr %2, align 4, !tbaa !10
  %3 = load i32, ptr %2, align 4, !tbaa !10
  %4 = zext i32 %3 to i64
  %5 = sub nsw i64 0, %4
  ret i64 %5
}

; Function Attrs: nounwind uwtable
define i64 @LZ4F_headerSize(ptr noundef %0, i64 noundef %1) #0 {
  %3 = alloca i64, align 8
  %4 = alloca ptr, align 8
  %5 = alloca i64, align 8
  %6 = alloca i8, align 1
  %7 = alloca i32, align 4
  %8 = alloca i32, align 4
  store ptr %0, ptr %4, align 8, !tbaa !12
  store i64 %1, ptr %5, align 8, !tbaa !3
  br label %9

9:                                                ; preds = %2
  %10 = load ptr, ptr %4, align 8, !tbaa !12
  %11 = icmp eq ptr %10, null
  br i1 %11, label %12, label %14

12:                                               ; preds = %9
  %13 = call i64 @LZ4F_returnErrorCode(i32 noundef 15)
  store i64 %13, ptr %3, align 8
  br label %53

14:                                               ; preds = %9
  br label %15

15:                                               ; preds = %14
  %16 = load i64, ptr %5, align 8, !tbaa !3
  %17 = icmp ult i64 %16, 5
  br i1 %17, label %18, label %20

18:                                               ; preds = %15
  %19 = call i64 @LZ4F_returnErrorCode(i32 noundef 12)
  store i64 %19, ptr %3, align 8
  br label %53

20:                                               ; preds = %15
  %21 = load ptr, ptr %4, align 8, !tbaa !12
  %22 = call i32 @LZ4F_readLE32(ptr noundef %21)
  %23 = and i32 %22, -16
  %24 = icmp eq i32 %23, 407710288
  br i1 %24, label %25, label %26

25:                                               ; preds = %20
  store i64 8, ptr %3, align 8
  br label %53

26:                                               ; preds = %20
  %27 = load ptr, ptr %4, align 8, !tbaa !12
  %28 = call i32 @LZ4F_readLE32(ptr noundef %27)
  %29 = icmp ne i32 %28, 407708164
  br i1 %29, label %30, label %32

30:                                               ; preds = %26
  %31 = call i64 @LZ4F_returnErrorCode(i32 noundef 13)
  store i64 %31, ptr %3, align 8
  br label %53

32:                                               ; preds = %26
  call void @llvm.lifetime.start.p0(i64 1, ptr %6) #8
  %33 = load ptr, ptr %4, align 8, !tbaa !12
  %34 = getelementptr inbounds i8, ptr %33, i64 4
  %35 = load i8, ptr %34, align 1, !tbaa !16
  store i8 %35, ptr %6, align 1, !tbaa !16
  call void @llvm.lifetime.start.p0(i64 4, ptr %7) #8
  %36 = load i8, ptr %6, align 1, !tbaa !16
  %37 = zext i8 %36 to i32
  %38 = ashr i32 %37, 3
  %39 = and i32 %38, 1
  store i32 %39, ptr %7, align 4, !tbaa !10
  call void @llvm.lifetime.start.p0(i64 4, ptr %8) #8
  %40 = load i8, ptr %6, align 1, !tbaa !16
  %41 = zext i8 %40 to i32
  %42 = and i32 %41, 1
  store i32 %42, ptr %8, align 4, !tbaa !10
  %43 = load i32, ptr %7, align 4, !tbaa !10
  %44 = icmp ne i32 %43, 0
  %45 = select i1 %44, i32 8, i32 0
  %46 = sext i32 %45 to i64
  %47 = add i64 7, %46
  %48 = load i32, ptr %8, align 4, !tbaa !10
  %49 = icmp ne i32 %48, 0
  %50 = select i1 %49, i32 4, i32 0
  %51 = sext i32 %50 to i64
  %52 = add i64 %47, %51
  store i64 %52, ptr %3, align 8
  call void @llvm.lifetime.end.p0(i64 4, ptr %8) #8
  call void @llvm.lifetime.end.p0(i64 4, ptr %7) #8
  call void @llvm.lifetime.end.p0(i64 1, ptr %6) #8
  br label %53

53:                                               ; preds = %32, %30, %25, %18, %12
  %54 = load i64, ptr %3, align 8
  ret i64 %54
}