; Function Attrs: mustprogress nofree norecurse nosync nounwind willreturn memory(argmem: read) uwtable
define range(i64 -15, 20) i64 @LZ4F_headerSize(ptr noundef readonly captures(address_is_null) %0, i64 noundef %1) local_unnamed_addr #2 {
  %3 = icmp eq ptr %0, null
  br i1 %3, label %20, label %4

4:                                                ; preds = %2
  %5 = icmp ult i64 %1, 5
  br i1 %5, label %20, label %6

6:                                                ; preds = %4
  %7 = load i32, ptr %0, align 1
  %8 = and i32 %7, -16
  %9 = icmp eq i32 %8, 407710288
  br i1 %9, label %20, label %10

10:                                               ; preds = %6
  %.not = icmp eq i32 %7, 407708164
  br i1 %.not, label %11, label %20

11:                                               ; preds = %10
  %12 = getelementptr inbounds nuw i8, ptr %0, i64 4
  %13 = load i8, ptr %12, align 1, !tbaa !18
  %14 = zext i8 %13 to i32
  %15 = and i32 %14, 8
  %16 = or disjoint i32 %15, 7
  %17 = shl nuw nsw i32 %14, 2
  %18 = and i32 %17, 4
  %narrow = add nuw nsw i32 %16, %18
  %19 = zext nneg i32 %narrow to i64
  br label %20

20:                                               ; preds = %10, %4, %2, %6, %11
  %.0 = phi i64 [ %19, %11 ], [ 8, %6 ], [ -15, %2 ], [ -12, %4 ], [ -13, %10 ]
  ret i64 %.0
}